; ModuleID = 'source-C-CXX/49/1696.c'
source_filename = "source-C-CXX/49/1696.c"
target datalayout = "e-m:e-p270:32:32-p271:32:32-p272:64:64-i64:64-f80:128-n8:16:32:64-S128"
target triple = "x86_64-pc-linux-gnu"

@.str = private unnamed_addr constant [3 x i8] c"%d\00", align 1
@.str.1 = private unnamed_addr constant [4 x i8] c"%d\0A\00", align 1

; Function Attrs: nofree nounwind sspstrong uwtable
define dso_local i32 @main() local_unnamed_addr #0 {
  %1 = alloca i32, align 4
  %2 = bitcast i32* %1 to i8*
  call void @llvm.lifetime.start.p0i8(i64 4, i8* nonnull %2) #3
  %3 = call i32 (i8*, ...) @__isoc99_scanf(i8* getelementptr inbounds ([3 x i8], [3 x i8]* @.str, i64 0, i64 0), i32* nonnull %1)
  br label %4

4:                                                ; preds = %0, %39
  %5 = phi i32 [ undef, %0 ], [ %31, %39 ]
  %6 = phi i32 [ 1, %0 ], [ %40, %39 ]
  switch i32 %6, label %30 [
    i32 1, label %7
    i32 2, label %8
    i32 3, label %10
    i32 4, label %12
    i32 5, label %14
    i32 6, label %16
    i32 7, label %18
    i32 8, label %20
    i32 9, label %22
    i32 10, label %24
    i32 11, label %26
    i32 12, label %28
  ]

7:                                                ; preds = %4
  br label %30

8:                                                ; preds = %4
  %9 = add nsw i32 %5, 31
  br label %30

10:                                               ; preds = %4
  %11 = add nsw i32 %5, 28
  br label %30

12:                                               ; preds = %4
  %13 = add nsw i32 %5, 31
  br label %30

14:                                               ; preds = %4
  %15 = add nsw i32 %5, 30
  br label %30

16:                                               ; preds = %4
  %17 = add nsw i32 %5, 31
  br label %30

18:                                               ; preds = %4
  %19 = add nsw i32 %5, 30
  br label %30

20:                                               ; preds = %4
  %21 = add nsw i32 %5, 31
  br label %30

22:                                               ; preds = %4
  %23 = add nsw i32 %5, 31
  br label %30

24:                                               ; preds = %4
  %25 = add nsw i32 %5, 30
  br label %30

26:                                               ; preds = %4
  %27 = add nsw i32 %5, 31
  br label %30

28:                                               ; preds = %4
  %29 = add nsw i32 %5, 30
  br label %30

30:                                               ; preds = %4, %28, %26, %24, %22, %20, %18, %16, %14, %12, %10, %8, %7
  %31 = phi i32 [ %5, %4 ], [ %29, %28 ], [ %27, %26 ], [ %25, %24 ], [ %23, %22 ], [ %21, %20 ], [ %19, %18 ], [ %17, %16 ], [ %15, %14 ], [ %13, %12 ], [ %11, %10 ], [ %9, %8 ], [ 13, %7 ]
  %32 = add nsw i32 %31, -1
  %33 = load i32, i32* %1, align 4, !tbaa !5
  %34 = add nsw i32 %32, %33
  %35 = srem i32 %34, 7
  %36 = icmp eq i32 %35, 5
  br i1 %36, label %37, label %39

37:                                               ; preds = %30
  %38 = call i32 (i8*, ...) @printf(i8* nonnull dereferenceable(1) getelementptr inbounds ([4 x i8], [4 x i8]* @.str.1, i64 0, i64 0), i32 %6)
  br label %39

39:                                               ; preds = %30, %37
  %40 = add nuw nsw i32 %6, 1
  %41 = icmp eq i32 %40, 13
  br i1 %41, label %42, label %4, !llvm.loop !9

42:                                               ; preds = %39
  call void @llvm.lifetime.end.p0i8(i64 4, i8* nonnull %2) #3
  ret i32 0
}

; Function Attrs: argmemonly mustprogress nofree nosync nounwind willreturn
declare void @llvm.lifetime.start.p0i8(i64 immarg, i8* nocapture) #1

; Function Attrs: nofree nounwind
declare noundef i32 @__isoc99_scanf(i8* nocapture noundef readonly, ...) local_unnamed_addr #2

; Function Attrs: nofree nounwind
declare noundef i32 @printf(i8* nocapture noundef readonly, ...) local_unnamed_addr #2

; Function Attrs: argmemonly mustprogress nofree nosync nounwind willreturn
declare void @llvm.lifetime.end.p0i8(i64 immarg, i8* nocapture) #1


!llvm.module.flags = !{!0, !1, !2, !3}
!llvm.ident = !{!4}

!0 = !{i32 1, !"wchar_size", i32 4}
!1 = !{i32 7, !"PIC Level", i32 2}
!2 = !{i32 7, !"PIE Level", i32 2}
!3 = !{i32 7, !"uwtable", i32 1}
!4 = !{!"clang version 13.0.0"}
!5 = !{!6, !6, i64 0}
!6 = !{!"int", !7, i64 0}
!7 = !{!"omnipotent char", !8, i64 0}
!8 = !{!"Simple C/C++ TBAA"}
!9 = distinct !{!9, !10}
!10 = !{!"llvm.loop.mustprogress"}
